; Function Attrs: nounwind uwtable
define hidden void @_ir_TAILCALL_1(ptr nocapture noundef %0, i32 noundef %1, i32 noundef %2, i32 noundef %3) local_unnamed_addr #0 {
  %5 = getelementptr inbounds i8, ptr %0, i64 32
  %6 = load i32, ptr %5, align 8
  %7 = icmp eq i32 %6, -1
  br i1 %7, label %8, label %9

8:                                                ; preds = %4
  store i32 %1, ptr %5, align 8
  br label %9

9:                                                ; preds = %8, %4
  %10 = shl i32 %1, 8
  %11 = or i32 %10, 196678
  %12 = getelementptr inbounds i8, ptr %0, i64 248
  %13 = load i32, ptr %12, align 8
  %14 = getelementptr inbounds i8, ptr %0, i64 8
  %15 = load i32, ptr %14, align 8
  %16 = getelementptr inbounds i8, ptr %0, i64 12
  %17 = load i32, ptr %16, align 4
  %.not.i.i.i = icmp slt i32 %15, %17
  %.pre.i.i = load ptr, ptr %0, align 8
  br i1 %.not.i.i.i, label %ir_emit3.exit, label %18

18:                                               ; preds = %9
  %19 = getelementptr inbounds i8, ptr %0, i64 20
  %20 = load i32, ptr %19, align 4
  %21 = icmp slt i32 %17, 4096
  %22 = shl nsw i32 %17, 1
  %23 = icmp ult i32 %17, 8192
  %24 = add nuw nsw i32 %17, 4096
  %spec.select.i.i.i.i = select i1 %23, i32 8192, i32 %24
  %.sink.i.i.i.i = select i1 %21, i32 %22, i32 %spec.select.i.i.i.i
  store i32 %.sink.i.i.i.i, ptr %16, align 4
  %25 = sext i32 %20 to i64
  %26 = sub nsw i64 0, %25
  %27 = getelementptr inbounds %struct._ir_insn, ptr %.pre.i.i, i64 %26
  %28 = add nsw i32 %20, %.sink.i.i.i.i
  %29 = sext i32 %28 to i64
  %30 = shl nsw i64 %29, 4
  %31 = tail call ptr @_erealloc(ptr noundef %27, i64 noundef %30) #24
  %32 = load i32, ptr %19, align 4
  %33 = sext i32 %32 to i64
  %34 = getelementptr inbounds %struct._ir_insn, ptr %31, i64 %33
  store ptr %34, ptr %0, align 8
  br label %ir_emit3.exit

ir_emit3.exit:                                    ; preds = %9, %18
  %35 = phi ptr [ %.pre.i.i, %9 ], [ %34, %18 ]
  %36 = add nsw i32 %15, 1
  store i32 %36, ptr %14, align 8
  %37 = sext i32 %15 to i64
  %38 = getelementptr inbounds %struct._ir_insn, ptr %35, i64 %37
  store i32 %11, ptr %38, align 8
  %39 = getelementptr inbounds i8, ptr %38, i64 4
  store i32 %13, ptr %39, align 4
  %40 = getelementptr inbounds i8, ptr %38, i64 8
  store i32 %2, ptr %40, align 8
  %41 = getelementptr inbounds i8, ptr %38, i64 12
  store i32 %3, ptr %41, align 4
  store i32 %15, ptr %12, align 8
  %42 = load ptr, ptr %0, align 8
  %43 = getelementptr inbounds i8, ptr %42, i64 20
  %44 = load i32, ptr %43, align 4
  %45 = load i32, ptr %14, align 8
  %46 = load i32, ptr %16, align 4
  %.not.i.i.i.i = icmp slt i32 %45, %46
  br i1 %.not.i.i.i.i, label %_ir_UNREACHABLE.exit, label %47

47:                                               ; preds = %ir_emit3.exit
  %48 = getelementptr inbounds i8, ptr %0, i64 20
  %49 = load i32, ptr %48, align 4
  %50 = icmp slt i32 %46, 4096
  %51 = shl nsw i32 %46, 1
  %52 = icmp ult i32 %46, 8192
  %53 = add nuw nsw i32 %46, 4096
  %spec.select.i.i.i.i.i = select i1 %52, i32 8192, i32 %53
  %.sink.i.i.i.i.i = select i1 %50, i32 %51, i32 %spec.select.i.i.i.i.i
  store i32 %.sink.i.i.i.i.i, ptr %16, align 4
  %54 = sext i32 %49 to i64
  %55 = sub nsw i64 0, %54
  %56 = getelementptr inbounds %struct._ir_insn, ptr %42, i64 %55
  %57 = add nsw i32 %49, %.sink.i.i.i.i.i
  %58 = sext i32 %57 to i64
  %59 = shl nsw i64 %58, 4
  %60 = tail call ptr @_erealloc(ptr noundef %56, i64 noundef %59) #24
  %61 = load i32, ptr %48, align 4
  %62 = sext i32 %61 to i64
  %63 = getelementptr inbounds %struct._ir_insn, ptr %60, i64 %62
  store ptr %63, ptr %0, align 8
  br label %_ir_UNREACHABLE.exit

_ir_UNREACHABLE.exit:                             ; preds = %ir_emit3.exit, %47
  %64 = phi ptr [ %42, %ir_emit3.exit ], [ %63, %47 ]
  %65 = add nsw i32 %45, 1
  store i32 %65, ptr %14, align 8
  %66 = sext i32 %45 to i64
  %67 = getelementptr inbounds %struct._ir_insn, ptr %64, i64 %66
  store i32 104, ptr %67, align 8
  %68 = getelementptr inbounds i8, ptr %67, i64 4
  store i32 %15, ptr %68, align 4
  %69 = getelementptr inbounds i8, ptr %67, i64 8
  store i32 0, ptr %69, align 8
  %70 = getelementptr inbounds i8, ptr %67, i64 12
  store i32 %44, ptr %70, align 4
  %71 = load ptr, ptr %0, align 8
  %72 = getelementptr inbounds i8, ptr %71, i64 20
  store i32 %45, ptr %72, align 4
  store i32 0, ptr %12, align 8
  ret void
}